target datalayout = "e-m:e-p270:32:32-p271:32:32-p272:64:64-i64:64-i128:128-f80:128-n8:16:32:64-S128"
target triple = "x86_64-pc-linux-gnu"

%struct.reassembly_table = type { ptr, ptr, ptr, ptr, ptr }
%struct.reassembly_table_functions = type { ptr, ptr, ptr, ptr, ptr, ptr }

@.str.1606 = private unnamed_addr constant [13 x i8] c"WebSphere MQ\00", align 1
@.str.1607 = private unnamed_addr constant [3 x i8] c"MQ\00", align 1
@.str.1608 = private unnamed_addr constant [3 x i8] c"mq\00", align 1
@proto_mq = internal global i32 0, align 4
@.str.1609 = private unnamed_addr constant [18 x i8] c"WebSphere MQ data\00", align 1
@mq_heur_subdissector_list = internal global ptr null, align 8
@mq_reassembly_table = internal global %struct.reassembly_table zeroinitializer, align 8
@addresses_reassembly_table_functions = external constant %struct.reassembly_table_functions, align 8
@mq_handle = internal global ptr null, align 8
@.str.1610 = private unnamed_addr constant [7 x i8] c"mq.spx\00", align 1
@mq_spx_handle = internal global ptr null, align 8
@.str.1611 = private unnamed_addr constant [10 x i8] c"desegment\00", align 1
@.str.1612 = private unnamed_addr constant [54 x i8] c"Reassemble MQ messages spanning multiple TCP segments\00", align 1
@.str.1613 = private unnamed_addr constant [203 x i8] c"Whether the MQ dissector should reassemble messages spanning multiple TCP segments. To use this option, you must also enable \22Allow subdissectors to reassemble TCP streams\22 in the TCP protocol settings.\00", align 1
@mq_desegment = internal global i8 1, align 1
@.str.1614 = private unnamed_addr constant [11 x i8] c"reassembly\00", align 1
@.str.1615 = private unnamed_addr constant [33 x i8] c"Reassemble segmented MQ messages\00", align 1
@.str.1616 = private unnamed_addr constant [86 x i8] c"Whether the MQ dissector should reassemble MQ messages spanning multiple TSH segments\00", align 1
@mq_reassembly = internal global i8 1, align 1

; Function Attrs: null_pointer_is_valid sspstrong uwtable
define hidden void @proto_register_mq() #0 {
  %1 = alloca ptr, align 8
  %2 = alloca ptr, align 8
  call void @llvm.lifetime.start.p0(i64 8, ptr %1) #9
  call void @llvm.lifetime.start.p0(i64 8, ptr %2) #9
  %3 = call i32 @proto_register_protocol(ptr noundef @.str.1606, ptr noundef @.str.1607, ptr noundef @.str.1608)
  store i32 %3, ptr @proto_mq, align 4
  %4 = load i32, ptr @proto_mq, align 4
  call void @proto_register_field_array(i32 noundef %4, ptr noundef @proto_register_mq.hf, i32 noundef 562)
  call void @proto_register_subtree_array(ptr noundef @proto_register_mq.ett, i32 noundef 65)
  %5 = load i32, ptr @proto_mq, align 4
  %6 = call ptr @expert_register_protocol(i32 noundef %5)
  store ptr %6, ptr %2, align 8
  %7 = load ptr, ptr %2, align 8
  call void @expert_register_field_array(ptr noundef %7, ptr noundef @proto_register_mq.ei, i32 noundef 1)
  %8 = load i32, ptr @proto_mq, align 4
  %9 = call ptr @register_heur_dissector_list_with_description(ptr noundef @.str.1608, ptr noundef @.str.1609, i32 noundef %8)
  store ptr %9, ptr @mq_heur_subdissector_list, align 8
  call void @reassembly_table_register(ptr noundef @mq_reassembly_table, ptr noundef @addresses_reassembly_table_functions)
  %10 = load i32, ptr @proto_mq, align 4
  %11 = call ptr @prefs_register_protocol(i32 noundef %10, ptr noundef null)
  store ptr %11, ptr %1, align 8
  %12 = load i32, ptr @proto_mq, align 4
  %13 = call ptr @register_dissector(ptr noundef @.str.1608, ptr noundef @dissect_mq_tcp, i32 noundef %12)
  store ptr %13, ptr @mq_handle, align 8
  %14 = load i32, ptr @proto_mq, align 4
  %15 = call ptr @register_dissector(ptr noundef @.str.1610, ptr noundef @dissect_mq_spx, i32 noundef %14)
  store ptr %15, ptr @mq_spx_handle, align 8
  %16 = load ptr, ptr %1, align 8
  call void @prefs_register_bool_preference(ptr noundef %16, ptr noundef @.str.1611, ptr noundef @.str.1612, ptr noundef @.str.1613, ptr noundef @mq_desegment)
  %17 = load ptr, ptr %1, align 8
  call void @prefs_register_bool_preference(ptr noundef %17, ptr noundef @.str.1614, ptr noundef @.str.1615, ptr noundef @.str.1616, ptr noundef @mq_reassembly)
  call void @llvm.lifetime.end.p0(i64 8, ptr %2) #9
  call void @llvm.lifetime.end.p0(i64 8, ptr %1) #9
  ret void
}