; Function Attrs: null_pointer_is_valid sspstrong uwtable
define hidden void @proto_register_mq() local_unnamed_addr #0 {
  %1 = tail call i32 @proto_register_protocol(ptr noundef nonnull @.str.1606, ptr noundef nonnull @.str.1607, ptr noundef nonnull @.str.1608)
  store i32 %1, ptr @proto_mq, align 4
  tail call void @proto_register_field_array(i32 noundef %1, ptr noundef nonnull @proto_register_mq.hf, i32 noundef 562)
  tail call void @proto_register_subtree_array(ptr noundef nonnull @proto_register_mq.ett, i32 noundef 65)
  %2 = load i32, ptr @proto_mq, align 4
  %3 = tail call ptr @expert_register_protocol(i32 noundef %2)
  tail call void @expert_register_field_array(ptr noundef %3, ptr noundef nonnull @proto_register_mq.ei, i32 noundef 1)
  %4 = load i32, ptr @proto_mq, align 4
  %5 = tail call ptr @register_heur_dissector_list_with_description(ptr noundef nonnull @.str.1608, ptr noundef nonnull @.str.1609, i32 noundef %4)
  store ptr %5, ptr @mq_heur_subdissector_list, align 8
  tail call void @reassembly_table_register(ptr noundef nonnull @mq_reassembly_table, ptr noundef nonnull @addresses_reassembly_table_functions)
  %6 = load i32, ptr @proto_mq, align 4
  %7 = tail call ptr @prefs_register_protocol(i32 noundef %6, ptr noundef null)
  %8 = load i32, ptr @proto_mq, align 4
  %9 = tail call ptr @register_dissector(ptr noundef nonnull @.str.1608, ptr noundef nonnull @dissect_mq_tcp, i32 noundef %8)
  store ptr %9, ptr @mq_handle, align 8
  %10 = load i32, ptr @proto_mq, align 4
  %11 = tail call ptr @register_dissector(ptr noundef nonnull @.str.1610, ptr noundef nonnull @dissect_mq_spx, i32 noundef %10)
  store ptr %11, ptr @mq_spx_handle, align 8
  tail call void @prefs_register_bool_preference(ptr noundef %7, ptr noundef nonnull @.str.1611, ptr noundef nonnull @.str.1612, ptr noundef nonnull @.str.1613, ptr noundef nonnull @mq_desegment)
  tail call void @prefs_register_bool_preference(ptr noundef %7, ptr noundef nonnull @.str.1614, ptr noundef nonnull @.str.1615, ptr noundef nonnull @.str.1616, ptr noundef nonnull @mq_reassembly)
  ret void
}